target datalayout = "e-m:e-p270:32:32-p271:32:32-p272:64:64-i64:64-i128:128-f80:128-n8:16:32:64-S128"
target triple = "x86_64-pc-linux-gnu"

%struct.TabList = type { [32 x %struct.Tab], i32, i32, i32 }
%struct.Tab = type { ptr, i64 }
%struct.VVCFrameContext = type { ptr, [17 x %struct.VVCFrame], ptr, ptr, %struct.VVCFrameParamSets, ptr, i32, i32, ptr, %struct.VVCDSPContext, %struct.VideoDSPContext, ptr, i64, ptr, ptr, ptr, ptr, %struct.anon }
%struct.VVCFrame = type { ptr, ptr, ptr, ptr, ptr, ptr, i32, i32, i32, %struct.VVCWindow, i32, i32, ptr, ptr, i16, i8, ptr }
%struct.VVCWindow = type { i16, i16, i16, i16 }
%struct.VVCFrameParamSets = type { ptr, ptr, %struct.VVCPH, [8 x ptr], %struct.VVCLMCS, ptr }
%struct.VVCPH = type { ptr, ptr, i32, i32, i8, [3 x i16], i8, [3 x i16], %struct.PredWeightTable }
%struct.PredWeightTable = type { [2 x i8], [2 x i8], [2 x [2 x [15 x i8]]], [2 x [3 x [15 x i16]]], [2 x [3 x [15 x i16]]] }
%struct.VVCLMCS = type { i8, i8, %union.anon.0, %union.anon.0, [17 x i16], [16 x i16] }
%union.anon.0 = type { [4096 x i16] }
%struct.VVCDSPContext = type { %struct.VVCInterDSPContext, %struct.VVCIntraDSPContext, %struct.VVCItxDSPContext, %struct.VVCLMCSDSPContext, %struct.VVCLFDSPContext, %struct.VVCSAODSPContext, %struct.VVCALFDSPContext }
%struct.VVCInterDSPContext = type { [2 x [7 x [2 x [2 x ptr]]]], [2 x [7 x [2 x [2 x ptr]]]], [2 x [7 x [2 x [2 x ptr]]]], [2 x [7 x ptr]], [2 x [7 x ptr]], [2 x [7 x ptr]], ptr, ptr, ptr, ptr, ptr, ptr, ptr, ptr, ptr, ptr, ptr, [2 x [2 x ptr]] }
%struct.VVCIntraDSPContext = type { ptr, ptr, ptr, ptr, ptr, ptr, ptr, ptr, ptr, ptr }
%struct.VVCItxDSPContext = type { ptr, ptr, [3 x [6 x ptr]], ptr, ptr }
%struct.VVCLMCSDSPContext = type { ptr }
%struct.VVCLFDSPContext = type { [2 x ptr], [2 x ptr], [2 x ptr] }
%struct.VVCSAODSPContext = type { [9 x ptr], [9 x ptr], [2 x ptr] }
%struct.VVCALFDSPContext = type { [2 x ptr], ptr, ptr, ptr }
%struct.VideoDSPContext = type { ptr, ptr }
%struct.anon = type { ptr, ptr, ptr, ptr, [2 x ptr], [2 x ptr], [2 x ptr], [2 x ptr], [2 x ptr], [3 x ptr], ptr, ptr, [2 x ptr], ptr, ptr, [2 x ptr], ptr, ptr, ptr, [2 x ptr], ptr, [3 x ptr], ptr, [2 x ptr], [2 x ptr], [2 x ptr], [2 x [3 x ptr]], [2 x ptr], [2 x ptr], [3 x ptr], [3 x ptr], [3 x [2 x ptr]], [3 x [2 x ptr]], ptr, ptr, ptr, [3 x ptr], %struct.anon.1 }
%struct.anon.1 = type { i32, i32, i32, i32, i32, i32, i32, i32, i32, i32, i32, i32 }
%struct.VVCPPS = type { ptr, [3 x i8], [6 x [3 x i8]], i16, i16, [1000 x i16], [1000 x i16], i16, i16, i16, i16, i32, i16, i16, i16, i16, ptr, ptr, ptr, ptr, ptr, i16, i16, i16, i16, i16, [1000 x i16], [1000 x i16], [1000 x i16], [1000 x i16] }

@.str.2 = private unnamed_addr constant [30 x i8] c"Assertion %s failed at %s:%d\0A\00", align 1
@.str.3 = private unnamed_addr constant [16 x i8] c"l->nb_tabs < 32\00", align 1
@.str.4 = private unnamed_addr constant [21 x i8] c"libavcodec/vvc/dec.c\00", align 1

; Function Attrs: nounwind uwtable
define internal void @tl_init(ptr noundef %0, i32 noundef %1, i32 noundef %2) #0 {
  %4 = alloca ptr, align 8
  %5 = alloca i32, align 4
  %6 = alloca i32, align 4
  store ptr %0, ptr %4, align 8, !tbaa !14
  store i32 %1, ptr %5, align 4, !tbaa !10
  store i32 %2, ptr %6, align 4, !tbaa !10
  %7 = load ptr, ptr %4, align 8, !tbaa !14
  %8 = getelementptr inbounds nuw %struct.TabList, ptr %7, i32 0, i32 1
  store i32 0, ptr %8, align 8, !tbaa !18
  %9 = load i32, ptr %5, align 4, !tbaa !10
  %10 = load ptr, ptr %4, align 8, !tbaa !14
  %11 = getelementptr inbounds nuw %struct.TabList, ptr %10, i32 0, i32 2
  store i32 %9, ptr %11, align 4, !tbaa !16
  %12 = load i32, ptr %6, align 4, !tbaa !10
  %13 = load ptr, ptr %4, align 8, !tbaa !14
  %14 = getelementptr inbounds nuw %struct.TabList, ptr %13, i32 0, i32 3
  store i32 %12, ptr %14, align 8, !tbaa !173
  ret void
}

; Function Attrs: nounwind uwtable
define internal void @min_tu_tl_init(ptr noundef %0, ptr noundef %1) #0 {
  %3 = alloca ptr, align 8
  %4 = alloca ptr, align 8
  %5 = alloca ptr, align 8
  %6 = alloca i32, align 4
  %7 = alloca i32, align 4
  %8 = alloca i32, align 4
  %9 = alloca i32, align 4
  %10 = alloca i32, align 4
  store ptr %0, ptr %3, align 8, !tbaa !14
  store ptr %1, ptr %4, align 8, !tbaa !4
  call void @llvm.lifetime.start.p0(i64 8, ptr %5) #9
  %11 = load ptr, ptr %4, align 8, !tbaa !4
  %12 = getelementptr inbounds nuw %struct.VVCFrameContext, ptr %11, i32 0, i32 4
  %13 = getelementptr inbounds nuw %struct.VVCFrameParamSets, ptr %12, i32 0, i32 1
  %14 = load ptr, ptr %13, align 8, !tbaa !115
  store ptr %14, ptr %5, align 8, !tbaa !116
  call void @llvm.lifetime.start.p0(i64 4, ptr %6) #9
  %15 = load ptr, ptr %5, align 8, !tbaa !116
  %16 = icmp ne ptr %15, null
  br i1 %16, label %17, label %27

17:                                               ; preds = %2
  %18 = load ptr, ptr %5, align 8, !tbaa !116
  %19 = getelementptr inbounds nuw %struct.VVCPPS, ptr %18, i32 0, i32 14
  %20 = load i16, ptr %19, align 4, !tbaa !133
  %21 = zext i16 %20 to i32
  %22 = load ptr, ptr %5, align 8, !tbaa !116
  %23 = getelementptr inbounds nuw %struct.VVCPPS, ptr %22, i32 0, i32 15
  %24 = load i16, ptr %23, align 2, !tbaa !134
  %25 = zext i16 %24 to i32
  %26 = mul nsw i32 %21, %25
  br label %28

27:                                               ; preds = %2
  br label %28

28:                                               ; preds = %27, %17
  %29 = phi i32 [ %26, %17 ], [ 0, %27 ]
  store i32 %29, ptr %6, align 4, !tbaa !10
  call void @llvm.lifetime.start.p0(i64 4, ptr %7) #9
  %30 = load ptr, ptr %4, align 8, !tbaa !4
  %31 = getelementptr inbounds nuw %struct.VVCFrameContext, ptr %30, i32 0, i32 17
  %32 = getelementptr inbounds nuw %struct.anon, ptr %31, i32 0, i32 37
  %33 = getelementptr inbounds nuw %struct.anon.1, ptr %32, i32 0, i32 4
  %34 = load i32, ptr %33, align 8, !tbaa !135
  %35 = load i32, ptr %6, align 4, !tbaa !10
  %36 = icmp ne i32 %34, %35
  %37 = zext i1 %36 to i32
  store i32 %37, ptr %7, align 4, !tbaa !10
  %38 = load ptr, ptr %3, align 8, !tbaa !14
  %39 = load i32, ptr %7, align 4, !tbaa !10
  call void @tl_init(ptr noundef %38, i32 noundef 1, i32 noundef %39)
  br label %40

40:                                               ; preds = %28
  br label %41

41:                                               ; preds = %40
  %42 = load ptr, ptr %3, align 8, !tbaa !14
  %43 = getelementptr inbounds nuw %struct.TabList, ptr %42, i32 0, i32 1
  %44 = load i32, ptr %43, align 8, !tbaa !18
  %45 = icmp slt i32 %44, 32
  br i1 %45, label %47, label %46

46:                                               ; preds = %41
  call void (ptr, i32, ptr, ...) @av_log(ptr noundef null, i32 noundef 0, ptr noundef @.str.2, ptr noundef @.str.3, ptr noundef @.str.4, i32 noundef 192)
  call void @abort() #11
  unreachable

47:                                               ; preds = %41
  br label %48

48:                                               ; preds = %47
  br label %49

49:                                               ; preds = %48
  %50 = load ptr, ptr %4, align 8, !tbaa !4
  %51 = getelementptr inbounds nuw %struct.VVCFrameContext, ptr %50, i32 0, i32 17
  %52 = getelementptr inbounds nuw %struct.anon, ptr %51, i32 0, i32 22
  %53 = load ptr, ptr %3, align 8, !tbaa !14
  %54 = getelementptr inbounds nuw %struct.TabList, ptr %53, i32 0, i32 0
  %55 = load ptr, ptr %3, align 8, !tbaa !14
  %56 = getelementptr inbounds nuw %struct.TabList, ptr %55, i32 0, i32 1
  %57 = load i32, ptr %56, align 8, !tbaa !18
  %58 = sext i32 %57 to i64
  %59 = getelementptr inbounds [32 x %struct.Tab], ptr %54, i64 0, i64 %58
  %60 = getelementptr inbounds nuw %struct.Tab, ptr %59, i32 0, i32 0
  store ptr %52, ptr %60, align 8, !tbaa !21
  %61 = load i32, ptr %6, align 4, !tbaa !10
  %62 = sext i32 %61 to i64
  %63 = mul i64 1, %62
  %64 = load ptr, ptr %3, align 8, !tbaa !14
  %65 = getelementptr inbounds nuw %struct.TabList, ptr %64, i32 0, i32 0
  %66 = load ptr, ptr %3, align 8, !tbaa !14
  %67 = getelementptr inbounds nuw %struct.TabList, ptr %66, i32 0, i32 1
  %68 = load i32, ptr %67, align 8, !tbaa !18
  %69 = sext i32 %68 to i64
  %70 = getelementptr inbounds [32 x %struct.Tab], ptr %65, i64 0, i64 %69
  %71 = getelementptr inbounds nuw %struct.Tab, ptr %70, i32 0, i32 1
  store i64 %63, ptr %71, align 8, !tbaa !25
  %72 = load ptr, ptr %3, align 8, !tbaa !14
  %73 = getelementptr inbounds nuw %struct.TabList, ptr %72, i32 0, i32 1
  %74 = load i32, ptr %73, align 8, !tbaa !18
  %75 = add nsw i32 %74, 1
  store i32 %75, ptr %73, align 8, !tbaa !18
  br label %76

76:                                               ; preds = %49
  br label %77

77:                                               ; preds = %76
  call void @llvm.lifetime.start.p0(i64 4, ptr %8) #9
  store i32 0, ptr %8, align 4, !tbaa !10
  br label %78

78:                                               ; preds = %177, %77
  %79 = load i32, ptr %8, align 4, !tbaa !10
  %80 = icmp slt i32 %79, 3
  br i1 %80, label %82, label %81

81:                                               ; preds = %78
  store i32 6, ptr %9, align 4
  call void @llvm.lifetime.end.p0(i64 4, ptr %8) #9
  br label %180

82:                                               ; preds = %78
  br label %83

83:                                               ; preds = %82
  br label %84

84:                                               ; preds = %83
  %85 = load ptr, ptr %3, align 8, !tbaa !14
  %86 = getelementptr inbounds nuw %struct.TabList, ptr %85, i32 0, i32 1
  %87 = load i32, ptr %86, align 8, !tbaa !18
  %88 = icmp slt i32 %87, 32
  br i1 %88, label %90, label %89

89:                                               ; preds = %84
  call void (ptr, i32, ptr, ...) @av_log(ptr noundef null, i32 noundef 0, ptr noundef @.str.2, ptr noundef @.str.3, ptr noundef @.str.4, i32 noundef 195)
  call void @abort() #11
  unreachable

90:                                               ; preds = %84
  br label %91

91:                                               ; preds = %90
  br label %92

92:                                               ; preds = %91
  %93 = load ptr, ptr %4, align 8, !tbaa !4
  %94 = getelementptr inbounds nuw %struct.VVCFrameContext, ptr %93, i32 0, i32 17
  %95 = getelementptr inbounds nuw %struct.anon, ptr %94, i32 0, i32 21
  %96 = load i32, ptr %8, align 4, !tbaa !10
  %97 = sext i32 %96 to i64
  %98 = getelementptr inbounds [3 x ptr], ptr %95, i64 0, i64 %97
  %99 = load ptr, ptr %3, align 8, !tbaa !14
  %100 = getelementptr inbounds nuw %struct.TabList, ptr %99, i32 0, i32 0
  %101 = load ptr, ptr %3, align 8, !tbaa !14
  %102 = getelementptr inbounds nuw %struct.TabList, ptr %101, i32 0, i32 1
  %103 = load i32, ptr %102, align 8, !tbaa !18
  %104 = sext i32 %103 to i64
  %105 = getelementptr inbounds [32 x %struct.Tab], ptr %100, i64 0, i64 %104
  %106 = getelementptr inbounds nuw %struct.Tab, ptr %105, i32 0, i32 0
  store ptr %98, ptr %106, align 8, !tbaa !21
  %107 = load i32, ptr %6, align 4, !tbaa !10
  %108 = sext i32 %107 to i64
  %109 = mul i64 1, %108
  %110 = load ptr, ptr %3, align 8, !tbaa !14
  %111 = getelementptr inbounds nuw %struct.TabList, ptr %110, i32 0, i32 0
  %112 = load ptr, ptr %3, align 8, !tbaa !14
  %113 = getelementptr inbounds nuw %struct.TabList, ptr %112, i32 0, i32 1
  %114 = load i32, ptr %113, align 8, !tbaa !18
  %115 = sext i32 %114 to i64
  %116 = getelementptr inbounds [32 x %struct.Tab], ptr %111, i64 0, i64 %115
  %117 = getelementptr inbounds nuw %struct.Tab, ptr %116, i32 0, i32 1
  store i64 %109, ptr %117, align 8, !tbaa !25
  %118 = load ptr, ptr %3, align 8, !tbaa !14
  %119 = getelementptr inbounds nuw %struct.TabList, ptr %118, i32 0, i32 1
  %120 = load i32, ptr %119, align 8, !tbaa !18
  %121 = add nsw i32 %120, 1
  store i32 %121, ptr %119, align 8, !tbaa !18
  br label %122

122:                                              ; preds = %92
  br label %123

123:                                              ; preds = %122
  call void @llvm.lifetime.start.p0(i64 4, ptr %10) #9
  store i32 0, ptr %10, align 4, !tbaa !10
  br label %124

124:                                              ; preds = %173, %123
  %125 = load i32, ptr %10, align 4, !tbaa !10
  %126 = icmp slt i32 %125, 2
  br i1 %126, label %128, label %127

127:                                              ; preds = %124
  store i32 13, ptr %9, align 4
  call void @llvm.lifetime.end.p0(i64 4, ptr %10) #9
  br label %176

128:                                              ; preds = %124
  br label %129

129:                                              ; preds = %128
  br label %130

130:                                              ; preds = %129
  %131 = load ptr, ptr %3, align 8, !tbaa !14
  %132 = getelementptr inbounds nuw %struct.TabList, ptr %131, i32 0, i32 1
  %133 = load i32, ptr %132, align 8, !tbaa !18
  %134 = icmp slt i32 %133, 32
  br i1 %134, label %136, label %135

135:                                              ; preds = %130
  call void (ptr, i32, ptr, ...) @av_log(ptr noundef null, i32 noundef 0, ptr noundef @.str.2, ptr noundef @.str.3, ptr noundef @.str.4, i32 noundef 198)
  call void @abort() #11
  unreachable

136:                                              ; preds = %130
  br label %137

137:                                              ; preds = %136
  br label %138

138:                                              ; preds = %137
  %139 = load ptr, ptr %4, align 8, !tbaa !4
  %140 = getelementptr inbounds nuw %struct.VVCFrameContext, ptr %139, i32 0, i32 17
  %141 = getelementptr inbounds nuw %struct.anon, ptr %140, i32 0, i32 26
  %142 = load i32, ptr %10, align 4, !tbaa !10
  %143 = sext i32 %142 to i64
  %144 = getelementptr inbounds [2 x [3 x ptr]], ptr %141, i64 0, i64 %143
  %145 = load i32, ptr %8, align 4, !tbaa !10
  %146 = sext i32 %145 to i64
  %147 = getelementptr inbounds [3 x ptr], ptr %144, i64 0, i64 %146
  %148 = load ptr, ptr %3, align 8, !tbaa !14
  %149 = getelementptr inbounds nuw %struct.TabList, ptr %148, i32 0, i32 0
  %150 = load ptr, ptr %3, align 8, !tbaa !14
  %151 = getelementptr inbounds nuw %struct.TabList, ptr %150, i32 0, i32 1
  %152 = load i32, ptr %151, align 8, !tbaa !18
  %153 = sext i32 %152 to i64
  %154 = getelementptr inbounds [32 x %struct.Tab], ptr %149, i64 0, i64 %153
  %155 = getelementptr inbounds nuw %struct.Tab, ptr %154, i32 0, i32 0
  store ptr %147, ptr %155, align 8, !tbaa !21
  %156 = load i32, ptr %6, align 4, !tbaa !10
  %157 = sext i32 %156 to i64
  %158 = mul i64 1, %157
  %159 = load ptr, ptr %3, align 8, !tbaa !14
  %160 = getelementptr inbounds nuw %struct.TabList, ptr %159, i32 0, i32 0
  %161 = load ptr, ptr %3, align 8, !tbaa !14
  %162 = getelementptr inbounds nuw %struct.TabList, ptr %161, i32 0, i32 1
  %163 = load i32, ptr %162, align 8, !tbaa !18
  %164 = sext i32 %163 to i64
  %165 = getelementptr inbounds [32 x %struct.Tab], ptr %160, i64 0, i64 %164
  %166 = getelementptr inbounds nuw %struct.Tab, ptr %165, i32 0, i32 1
  store i64 %158, ptr %166, align 8, !tbaa !25
  %167 = load ptr, ptr %3, align 8, !tbaa !14
  %168 = getelementptr inbounds nuw %struct.TabList, ptr %167, i32 0, i32 1
  %169 = load i32, ptr %168, align 8, !tbaa !18
  %170 = add nsw i32 %169, 1
  store i32 %170, ptr %168, align 8, !tbaa !18
  br label %171

171:                                              ; preds = %138
  br label %172

172:                                              ; preds = %171
  br label %173

173:                                              ; preds = %172
  %174 = load i32, ptr %10, align 4, !tbaa !10
  %175 = add nsw i32 %174, 1
  store i32 %175, ptr %10, align 4, !tbaa !10
  br label %124, !llvm.loop !136

176:                                              ; preds = %127
  br label %177

177:                                              ; preds = %176
  %178 = load i32, ptr %8, align 4, !tbaa !10
  %179 = add nsw i32 %178, 1
  store i32 %179, ptr %8, align 4, !tbaa !10
  br label %78, !llvm.loop !137

180:                                              ; preds = %81
  call void @llvm.lifetime.end.p0(i64 4, ptr %7) #9
  call void @llvm.lifetime.end.p0(i64 4, ptr %6) #9
  call void @llvm.lifetime.end.p0(i64 8, ptr %5) #9
  ret void
}