; Function Attrs: nounwind uwtable
define internal void @min_tu_tl_init(ptr noundef writeonly captures(none) initializes((0, 16), (512, 524)) %0, ptr noundef %1) #0 {
  %3 = getelementptr inbounds nuw i8, ptr %1, i64 1936
  %4 = load ptr, ptr %3, align 8, !tbaa !158
  %.not = icmp eq ptr %4, null
  br i1 %.not, label %13, label %5

5:                                                ; preds = %2
  %6 = getelementptr inbounds nuw i8, ptr %4, i64 4052
  %7 = load i16, ptr %6, align 4, !tbaa !181
  %8 = zext i16 %7 to i32
  %9 = getelementptr inbounds nuw i8, ptr %4, i64 4054
  %10 = load i16, ptr %9, align 2, !tbaa !182
  %11 = zext i16 %10 to i32
  %12 = mul nuw nsw i32 %11, %8
  br label %13

13:                                               ; preds = %5, %2
  %14 = phi i32 [ %12, %5 ], [ 0, %2 ]
  %15 = getelementptr inbounds nuw i8, ptr %1, i64 21952
  %16 = load i32, ptr %15, align 8, !tbaa !183
  %17 = icmp ne i32 %16, %14
  %18 = zext i1 %17 to i32
  %19 = getelementptr inbounds nuw i8, ptr %0, i64 512
  %20 = getelementptr inbounds nuw i8, ptr %0, i64 516
  store i32 1, ptr %20, align 4, !tbaa !10
  %21 = getelementptr inbounds nuw i8, ptr %0, i64 520
  store i32 %18, ptr %21, align 8, !tbaa !167
  %22 = getelementptr inbounds nuw i8, ptr %1, i64 21608
  store ptr %22, ptr %0, align 8, !tbaa !13
  %23 = zext nneg i32 %14 to i64
  %24 = getelementptr inbounds nuw i8, ptr %0, i64 8
  store i64 %23, ptr %24, align 8, !tbaa !17
  store i32 1, ptr %19, align 8, !tbaa !18
  %25 = getelementptr inbounds nuw i8, ptr %1, i64 21584
  %26 = getelementptr inbounds nuw i8, ptr %1, i64 21664
  br label %31

27:                                               ; preds = %37
  store i32 %38, ptr %19, align 8, !tbaa !18
  ret void

28:                                               ; preds = %37
  %29 = icmp slt i64 %indvars.iv4867, 31
  br i1 %29, label %31, label %30, !llvm.loop !276

30:                                               ; preds = %28
  store i32 %38, ptr %19, align 8, !tbaa !18
  tail call void (ptr, i32, ptr, ...) @av_log(ptr noundef null, i32 noundef 0, ptr noundef nonnull @.str.2, ptr noundef nonnull @.str.3, ptr noundef nonnull @.str.4, i32 noundef 195) #10
  tail call void @abort() #12
  unreachable

31:                                               ; preds = %13, %28
  %.promoted454672 = phi i32 [ 1, %13 ], [ %38, %28 ]
  %indvars.iv5371 = phi i64 [ 0, %13 ], [ %indvars.iv.next54, %28 ]
  %32 = getelementptr inbounds nuw [3 x ptr], ptr %25, i64 0, i64 %indvars.iv5371
  %33 = sext i32 %.promoted454672 to i64
  %34 = getelementptr inbounds [32 x %struct.Tab], ptr %0, i64 0, i64 %33
  store ptr %32, ptr %34, align 8, !tbaa !13
  %35 = getelementptr inbounds [32 x %struct.Tab], ptr %0, i64 0, i64 %33, i32 1
  store i64 %23, ptr %35, align 8, !tbaa !17
  %exitcond.not66 = icmp eq i32 %.promoted454672, 31
  br i1 %exitcond.not66, label %._crit_edge, label %.lr.ph

.lr.ph:                                           ; preds = %31
  %36 = add nsw i64 %33, 1
  %exitcond.not = icmp eq i32 %.promoted454672, 30
  br label %42

37:                                               ; preds = %42
  %38 = trunc nsw i64 %indvars.iv.next49 to i32
  %indvars.iv.next54 = add nuw nsw i64 %indvars.iv5371, 1
  %exitcond56.not = icmp eq i64 %indvars.iv.next54, 3
  br i1 %exitcond56.not, label %27, label %28, !llvm.loop !276

39:                                               ; preds = %42
  br i1 %exitcond.not, label %._crit_edge69.loopexit, label %42, !llvm.loop !277

._crit_edge:                                      ; preds = %31
  %40 = add nuw nsw i32 %.promoted454672, 1
  br label %._crit_edge69

._crit_edge69.loopexit:                           ; preds = %39
  %41 = trunc nsw i64 %indvars.iv.next49 to i32
  br label %._crit_edge69

._crit_edge69:                                    ; preds = %._crit_edge69.loopexit, %._crit_edge
  %.lcssa = phi i32 [ %40, %._crit_edge ], [ %41, %._crit_edge69.loopexit ]
  store i32 %.lcssa, ptr %19, align 8, !tbaa !18
  tail call void (ptr, i32, ptr, ...) @av_log(ptr noundef null, i32 noundef 0, ptr noundef nonnull @.str.2, ptr noundef nonnull @.str.3, ptr noundef nonnull @.str.4, i32 noundef 198) #10
  tail call void @abort() #12
  unreachable

42:                                               ; preds = %.lr.ph, %39
  %indvars.iv68 = phi i64 [ 0, %.lr.ph ], [ 1, %39 ]
  %43 = phi i1 [ true, %.lr.ph ], [ false, %39 ]
  %indvars.iv4867 = phi i64 [ %36, %.lr.ph ], [ %indvars.iv.next49, %39 ]
  %44 = getelementptr inbounds nuw [2 x [3 x ptr]], ptr %26, i64 0, i64 %indvars.iv68, i64 %indvars.iv5371
  %45 = getelementptr inbounds [32 x %struct.Tab], ptr %0, i64 0, i64 %indvars.iv4867
  store ptr %44, ptr %45, align 8, !tbaa !13
  %46 = getelementptr inbounds [32 x %struct.Tab], ptr %0, i64 0, i64 %indvars.iv4867, i32 1
  store i64 %23, ptr %46, align 8, !tbaa !17
  %indvars.iv.next49 = add nsw i64 %indvars.iv4867, 1
  br i1 %43, label %39, label %37, !llvm.loop !277
}